; Function Attrs: mustprogress nofree norecurse nosync nounwind memory(argmem: readwrite) uwtable
define internal noundef range(i32 -1, 2) i32 @_ZL9luauF_minP9lua_StateP10lua_TValueS2_iS2_i(ptr readnone captures(none) %0, ptr noundef writeonly captures(none) %1, ptr noundef readonly captures(none) %2, i32 noundef %3, ptr noundef readonly captures(none) %4, i32 noundef %5) #5 {
  %7 = icmp sgt i32 %5, 1
  %8 = icmp slt i32 %3, 2
  %or.cond = and i1 %8, %7
  br i1 %or.cond, label %9, label %.loopexit

9:                                                ; preds = %6
  %10 = getelementptr inbounds nuw i8, ptr %2, i64 12
  %11 = load i32, ptr %10, align 4, !tbaa !4
  %12 = icmp eq i32 %11, 3
  br i1 %12, label %13, label %.loopexit

13:                                               ; preds = %9
  %14 = getelementptr inbounds nuw i8, ptr %4, i64 12
  %15 = load i32, ptr %14, align 4, !tbaa !4
  %16 = icmp eq i32 %15, 3
  br i1 %16, label %17, label %.loopexit

17:                                               ; preds = %13
  %18 = load double, ptr %2, align 8, !tbaa !9
  %19 = load double, ptr %4, align 8, !tbaa !9
  %20 = fcmp olt double %19, %18
  %21 = select i1 %20, double %19, double %18
  %.not31 = icmp samesign ult i32 %5, 3
  br i1 %.not31, label %.critedge, label %.lr.ph.preheader

.lr.ph.preheader:                                 ; preds = %17
  %22 = add nuw i32 %5, 1
  %wide.trip.count = zext i32 %22 to i64
  br label %.lr.ph

.lr.ph:                                           ; preds = %.lr.ph.preheader, %27
  %indvars.iv = phi i64 [ 3, %.lr.ph.preheader ], [ %indvars.iv.next, %27 ]
  %.02733 = phi double [ %21, %.lr.ph.preheader ], [ %31, %27 ]
  %23 = getelementptr %struct.lua_TValue, ptr %4, i64 %indvars.iv
  %24 = getelementptr i8, ptr %23, i64 -20
  %25 = load i32, ptr %24, align 4, !tbaa !4
  %26 = icmp eq i32 %25, 3
  br i1 %26, label %27, label %.loopexit

27:                                               ; preds = %.lr.ph
  %28 = getelementptr i8, ptr %23, i64 -32
  %29 = load double, ptr %28, align 8, !tbaa !9
  %30 = fcmp olt double %29, %.02733
  %31 = select i1 %30, double %29, double %.02733
  %indvars.iv.next = add nuw nsw i64 %indvars.iv, 1
  %exitcond.not = icmp eq i64 %indvars.iv.next, %wide.trip.count
  br i1 %exitcond.not, label %.critedge, label %.lr.ph, !llvm.loop !13

.critedge:                                        ; preds = %27, %17
  %.027.lcssa = phi double [ %21, %17 ], [ %31, %27 ]
  store double %.027.lcssa, ptr %1, align 8, !tbaa !9
  %32 = getelementptr inbounds nuw i8, ptr %1, i64 12
  store i32 3, ptr %32, align 4, !tbaa !4
  br label %.loopexit

.loopexit:                                        ; preds = %.lr.ph, %6, %9, %13, %.critedge
  %.2 = phi i32 [ 1, %.critedge ], [ -1, %13 ], [ -1, %9 ], [ -1, %6 ], [ -1, %.lr.ph ]
  ret i32 %.2
}